target datalayout = "e-m:e-p270:32:32-p271:32:32-p272:64:64-i64:64-i128:128-f80:128-n8:16:32:64-S128"
target triple = "x86_64-pc-linux-gnu"

%struct.darktable_t = type { %struct.dt_codepath_t, i32, i32, ptr, ptr, ptr, ptr, ptr, ptr, ptr, ptr, ptr, ptr, ptr, ptr, ptr, ptr, ptr, ptr, ptr, ptr, ptr, ptr, ptr, ptr, ptr, ptr, ptr, ptr, ptr, [64 x %struct.dt_pthread_mutex_t], %struct.dt_pthread_mutex_t, %struct.dt_pthread_mutex_t, %struct.dt_pthread_mutex_t, %struct.dt_pthread_mutex_t, %struct.dt_pthread_mutex_t, ptr, ptr, ptr, ptr, ptr, ptr, ptr, ptr, ptr, ptr, ptr, ptr, ptr, %struct.dt_lua_state_t, ptr, double, ptr, i32, [47 x i32], i32, i32, ptr, ptr, %struct.dt_sys_resources_t, %struct.dt_backthumb_t, %struct.dt_gimp_t }
%struct.dt_codepath_t = type { i8, [3 x i8] }
%struct.dt_pthread_mutex_t = type { %union.pthread_mutex_t }
%union.pthread_mutex_t = type { %struct.__pthread_mutex_s }
%struct.__pthread_mutex_s = type { i32, i32, i32, i32, i32, i16, i16, %struct.__pthread_internal_list }
%struct.__pthread_internal_list = type { ptr, ptr }
%struct.dt_lua_state_t = type { i32 }
%struct.dt_sys_resources_t = type { i64, i64, ptr, ptr, i32 }
%struct.dt_backthumb_t = type { double, double, i32, i32, i32, i32 }
%struct.dt_gimp_t = type { i32, ptr, ptr, i32, i32 }
%struct.dt_iop_lut3d_params_t = type { [512 x i8], i32, i32, i32, [12288 x i8], [128 x i8] }

@.str.6 = private unnamed_addr constant [5 x i8] c"gmic\00", align 1
@.str.7 = private unnamed_addr constant [7 x i8] c".cimgz\00", align 1
@darktable = external global %struct.darktable_t, align 8
@.str.8 = private unnamed_addr constant [44 x i8] c"[lut3d] error allocating buffer for gmz LUT\00", align 1
@.str.9 = private unnamed_addr constant [36 x i8] c"error allocating buffer for gmz LUT\00", align 1

; Function Attrs: inlinehint nounwind uwtable
define internal ptr @dt_alloc_align_float(i64 noundef %0) #8 {
  %2 = alloca i64, align 8
  store i64 %0, ptr %2, align 8, !tbaa !35
  %3 = load i64, ptr %2, align 8, !tbaa !35
  %4 = mul i64 %3, 4
  %5 = call ptr @dt_alloc_aligned(i64 noundef %4)
  call void @llvm.assume(i1 true) [ "align"(ptr %5, i64 64) ]
  ret ptr %5
}

; Function Attrs: nounwind uwtable
define hidden void @get_cache_filename(ptr noundef %0, ptr noundef %1) #0 {
  %3 = alloca ptr, align 8
  %4 = alloca ptr, align 8
  %5 = alloca ptr, align 8
  %6 = alloca ptr, align 8
  store ptr %0, ptr %3, align 8, !tbaa !41
  store ptr %1, ptr %4, align 8, !tbaa !41
  call void @llvm.lifetime.start.p0(i64 8, ptr %5) #13
  %7 = call ptr @g_get_user_cache_dir()
  %8 = call noalias ptr (ptr, ...) @g_build_filename(ptr noundef %7, ptr noundef @.str.6, ptr noundef null)
  store ptr %8, ptr %5, align 8, !tbaa !41
  call void @llvm.lifetime.start.p0(i64 8, ptr %6) #13
  %9 = load ptr, ptr %5, align 8, !tbaa !41
  %10 = load ptr, ptr %3, align 8, !tbaa !41
  %11 = call noalias ptr (ptr, ...) @g_build_filename(ptr noundef %9, ptr noundef %10, ptr noundef null)
  store ptr %11, ptr %6, align 8, !tbaa !41
  %12 = load ptr, ptr %4, align 8, !tbaa !41
  %13 = load ptr, ptr %6, align 8, !tbaa !41
  %14 = call i64 @g_strlcpy(ptr noundef %12, ptr noundef %13, i64 noundef 512)
  %15 = load ptr, ptr %4, align 8, !tbaa !41
  %16 = load ptr, ptr %4, align 8, !tbaa !41
  %17 = call i64 @strlen(ptr noundef %16) #15
  %18 = getelementptr inbounds nuw i8, ptr %15, i64 %17
  %19 = load ptr, ptr %6, align 8, !tbaa !41
  %20 = call i64 @strlen(ptr noundef %19) #15
  %21 = sub i64 512, %20
  %22 = call i64 @g_strlcpy(ptr noundef %18, ptr noundef @.str.7, i64 noundef %21)
  %23 = load ptr, ptr %5, align 8, !tbaa !41
  call void @g_free(ptr noundef %23)
  %24 = load ptr, ptr %6, align 8, !tbaa !41
  call void @g_free(ptr noundef %24)
  call void @llvm.lifetime.end.p0(i64 8, ptr %6) #13
  call void @llvm.lifetime.end.p0(i64 8, ptr %5) #13
  ret void
}

; Function Attrs: nounwind uwtable
define hidden zeroext i8 @calculate_clut_compressed(ptr noundef %0, ptr noundef %1, ptr noundef %2) #0 {
  %4 = alloca ptr, align 8
  %5 = alloca ptr, align 8
  %6 = alloca ptr, align 8
  %7 = alloca i8, align 1
  %8 = alloca ptr, align 8
  %9 = alloca [512 x i8], align 16
  %10 = alloca i64, align 8
  %11 = alloca ptr, align 8
  store ptr %0, ptr %4, align 8, !tbaa !43
  store ptr %1, ptr %5, align 8, !tbaa !41
  store ptr %2, ptr %6, align 8, !tbaa !45
  call void @llvm.lifetime.start.p0(i64 1, ptr %7) #13
  store i8 48, ptr %7, align 1, !tbaa !47
  call void @llvm.lifetime.start.p0(i64 8, ptr %8) #13
  store ptr null, ptr %8, align 8, !tbaa !33
  call void @llvm.lifetime.start.p0(i64 512, ptr %9) #13
  call void @llvm.lifetime.start.p0(i64 8, ptr %10) #13
  %12 = load ptr, ptr %4, align 8, !tbaa !43
  %13 = getelementptr inbounds nuw %struct.dt_iop_lut3d_params_t, ptr %12, i32 0, i32 5
  %14 = getelementptr inbounds [128 x i8], ptr %13, i64 0, i64 0
  %15 = getelementptr inbounds [512 x i8], ptr %9, i64 0, i64 0
  call void @get_cache_filename(ptr noundef %14, ptr noundef %15)
  %16 = load i8, ptr %7, align 1, !tbaa !47
  %17 = zext i8 %16 to i32
  %18 = load i8, ptr %7, align 1, !tbaa !47
  %19 = zext i8 %18 to i32
  %20 = mul nsw i32 %17, %19
  %21 = load i8, ptr %7, align 1, !tbaa !47
  %22 = zext i8 %21 to i32
  %23 = mul nsw i32 %20, %22
  %24 = mul nsw i32 %23, 3
  %25 = sext i32 %24 to i64
  store i64 %25, ptr %10, align 8, !tbaa !35
  %26 = load i64, ptr %10, align 8, !tbaa !35
  %27 = call ptr @dt_alloc_align_float(i64 noundef %26)
  store ptr %27, ptr %8, align 8, !tbaa !33
  %28 = load ptr, ptr %8, align 8, !tbaa !33
  %29 = icmp ne ptr %28, null
  br i1 %29, label %41, label %30

30:                                               ; preds = %3
  br label %31

31:                                               ; preds = %30
  %32 = load i32, ptr getelementptr inbounds nuw (%struct.darktable_t, ptr @darktable, i32 0, i32 2), align 8, !tbaa !48
  %33 = xor i32 %32, -1
  %34 = and i32 0, %33
  %35 = icmp ne i32 %34, 0
  br i1 %35, label %37, label %36

36:                                               ; preds = %31
  call void (ptr, ...) @dt_print_ext(ptr noundef @.str.8)
  br label %37

37:                                               ; preds = %36, %31
  br label %38

38:                                               ; preds = %37
  br label %39

39:                                               ; preds = %38
  %40 = call ptr @dcgettext(ptr noundef null, ptr noundef @.str.9, i32 noundef 5) #13
  call void (ptr, ...) @dt_control_log(ptr noundef %40)
  store i8 0, ptr %7, align 1, !tbaa !47
  br label %63

41:                                               ; preds = %3
  %42 = load ptr, ptr %8, align 8, !tbaa !33
  %43 = load i8, ptr %7, align 1, !tbaa !47
  %44 = zext i8 %43 to i32
  %45 = getelementptr inbounds [512 x i8], ptr %9, i64 0, i64 0
  %46 = call i32 @lut3d_get_cached_clut(ptr noundef %42, i32 noundef %44, ptr noundef %45)
  %47 = trunc i32 %46 to i8
  store i8 %47, ptr %7, align 1, !tbaa !47
  %48 = load i8, ptr %7, align 1, !tbaa !47
  %49 = icmp ne i8 %48, 0
  br i1 %49, label %62, label %50

50:                                               ; preds = %41
  call void @llvm.lifetime.start.p0(i64 8, ptr %11) #13
  %51 = load ptr, ptr %4, align 8, !tbaa !43
  %52 = getelementptr inbounds nuw %struct.dt_iop_lut3d_params_t, ptr %51, i32 0, i32 4
  %53 = getelementptr inbounds [12288 x i8], ptr %52, i64 0, i64 0
  store ptr %53, ptr %11, align 8, !tbaa !41
  store i8 48, ptr %7, align 1, !tbaa !47
  %54 = load ptr, ptr %11, align 8, !tbaa !41
  %55 = load ptr, ptr %4, align 8, !tbaa !43
  %56 = getelementptr inbounds nuw %struct.dt_iop_lut3d_params_t, ptr %55, i32 0, i32 3
  %57 = load i32, ptr %56, align 4, !tbaa !83
  %58 = load i8, ptr %7, align 1, !tbaa !47
  %59 = zext i8 %58 to i32
  %60 = load ptr, ptr %8, align 8, !tbaa !33
  %61 = getelementptr inbounds [512 x i8], ptr %9, i64 0, i64 0
  call void @lut3d_decompress_clut(ptr noundef %54, i32 noundef %57, i32 noundef %59, ptr noundef %60, ptr noundef %61)
  call void @llvm.lifetime.end.p0(i64 8, ptr %11) #13
  br label %62

62:                                               ; preds = %50, %41
  br label %63

63:                                               ; preds = %62, %39
  %64 = load ptr, ptr %8, align 8, !tbaa !33
  %65 = load ptr, ptr %6, align 8, !tbaa !45
  store ptr %64, ptr %65, align 8, !tbaa !33
  %66 = load i8, ptr %7, align 1, !tbaa !47
  call void @llvm.lifetime.end.p0(i64 8, ptr %10) #13
  call void @llvm.lifetime.end.p0(i64 512, ptr %9) #13
  call void @llvm.lifetime.end.p0(i64 8, ptr %8) #13
  call void @llvm.lifetime.end.p0(i64 1, ptr %7) #13
  ret i8 %66
}