; Function Attrs: nounwind uwtable
define hidden zeroext i8 @calculate_clut_compressed(ptr noundef %0, ptr readnone captures(none) %1, ptr noundef writeonly captures(none) initializes((0, 8)) %2) local_unnamed_addr #1 {
  %4 = alloca [512 x i8], align 16
  call void @llvm.lifetime.start.p0(i64 512, ptr nonnull %4) #25
  %5 = getelementptr inbounds nuw i8, ptr %0, i64 12812
  %6 = tail call ptr @g_get_user_cache_dir() #25
  %7 = tail call noalias ptr (ptr, ...) @g_build_filename(ptr noundef %6, ptr noundef nonnull @.str.6, ptr noundef null) #25
  %8 = tail call noalias ptr (ptr, ...) @g_build_filename(ptr noundef %7, ptr noundef nonnull %5, ptr noundef null) #25
  %9 = call i64 @g_strlcpy(ptr noundef nonnull %4, ptr noundef %8, i64 noundef 512) #25
  %10 = call i64 @strlen(ptr noundef nonnull dereferenceable(1) %4) #27
  %11 = getelementptr inbounds nuw i8, ptr %4, i64 %10
  %12 = call i64 @strlen(ptr noundef nonnull dereferenceable(1) %8) #27
  %13 = sub i64 512, %12
  %14 = call i64 @g_strlcpy(ptr noundef nonnull %11, ptr noundef nonnull @.str.7, i64 noundef %13) #25
  call void @g_free(ptr noundef %7) #25
  call void @g_free(ptr noundef nonnull %8) #25
  %15 = call ptr @dt_alloc_aligned(i64 noundef 1327104) #25
  call void @llvm.assume(i1 true) [ "align"(ptr %15, i64 64) ]
  %.not = icmp eq ptr %15, null
  br i1 %.not, label %16, label %18

16:                                               ; preds = %3
  call void (ptr, ...) @dt_print_ext(ptr noundef nonnull @.str.8) #25
  %17 = call ptr @dcgettext(ptr noundef null, ptr noundef nonnull @.str.9, i32 noundef 5) #25
  call void (ptr, ...) @dt_control_log(ptr noundef %17) #25
  br label %25

18:                                               ; preds = %3
  %19 = call i32 @lut3d_get_cached_clut(ptr noundef nonnull %15, i32 noundef 48, ptr noundef nonnull %4) #25
  %20 = trunc i32 %19 to i8
  %.not18 = icmp eq i8 %20, 0
  br i1 %.not18, label %21, label %25

21:                                               ; preds = %18
  %22 = getelementptr inbounds nuw i8, ptr %0, i64 524
  %23 = getelementptr inbounds nuw i8, ptr %0, i64 520
  %24 = load i32, ptr %23, align 4, !tbaa !20
  call void @lut3d_decompress_clut(ptr noundef nonnull %22, i32 noundef %24, i32 noundef 48, ptr noundef nonnull %15, ptr noundef nonnull %4) #25
  br label %25

25:                                               ; preds = %18, %21, %16
  %.0 = phi i8 [ %20, %18 ], [ 48, %21 ], [ 0, %16 ]
  store ptr %15, ptr %2, align 8, !tbaa !22
  call void @llvm.lifetime.end.p0(i64 512, ptr nonnull %4) #25
  ret i8 %.0
}